target datalayout = "e-m:e-p270:32:32-p271:32:32-p272:64:64-i64:64-i128:128-f80:128-n8:16:32:64-S128"
target triple = "x86_64-pc-linux-gnu"

%struct.dtlink_s_ = type { ptr, %union.anon }
%union.anon = type { ptr }
%struct.pointf_s = type { double, double }
%struct.Agobj_s = type { %struct.Agtag_s, ptr }
%struct.Agtag_s = type { i32, i64 }
%struct.Agedgeinfo_t = type { %struct.Agrec_s, ptr, %struct.port, %struct.port, ptr, ptr, ptr, ptr, i8, i8, i8, i8, i8, ptr, ptr, double, double, %struct.Ppoly_t, i8, i8, i16, i32, i32, i32, i16, i32, ptr }
%struct.Agrec_s = type { ptr, ptr }
%struct.port = type { %struct.pointf_s, double, ptr, i8, i8, i8, i8, i8, i8, ptr }
%struct.Ppoly_t = type { ptr, i64 }
%struct.Agedge_s = type { %struct.Agobj_s, %struct.dtlink_s_, %struct.dtlink_s_, ptr }

@Concentrate = external global i8, align 1
@stderr = external global ptr, align 8
@sinfo = internal global { ptr, ptr, i8, i8, [6 x i8] } { ptr @swap_ends_p, ptr @spline_merge, i8 0, i8 0, [6 x i8] zeroinitializer }, align 8
@.str.5 = private unnamed_addr constant [58 x i8] c"integer overflow when trying to allocate %zu * %zu bytes\0A\00", align 1
@.str.6 = private unnamed_addr constant [49 x i8] c"out of memory when trying to allocate %zu bytes\0A\00", align 1

; Function Attrs: inlinehint nounwind uwtable
define internal ptr @gv_calloc(i64 noundef %0, i64 noundef %1) #4 {
  %3 = alloca i64, align 8
  %4 = alloca i64, align 8
  %5 = alloca ptr, align 8
  store i64 %0, ptr %3, align 8, !tbaa !46
  store i64 %1, ptr %4, align 8, !tbaa !46
  %6 = load i64, ptr %3, align 8, !tbaa !46
  %7 = icmp ugt i64 %6, 0
  br i1 %7, label %8, label %18

8:                                                ; preds = %2
  %9 = load i64, ptr %3, align 8, !tbaa !46
  %10 = udiv i64 -1, %9
  %11 = load i64, ptr %4, align 8, !tbaa !46
  %12 = icmp ult i64 %10, %11
  br i1 %12, label %13, label %18

13:                                               ; preds = %8
  %14 = load ptr, ptr @stderr, align 8, !tbaa !59
  %15 = load i64, ptr %3, align 8, !tbaa !46
  %16 = load i64, ptr %4, align 8, !tbaa !46
  %17 = call i32 (ptr, ptr, ...) @fprintf(ptr noundef %14, ptr noundef @.str.5, i64 noundef %15, i64 noundef %16) #11
  call void @graphviz_exit(i32 noundef 1) #12
  unreachable

18:                                               ; preds = %8, %2
  call void @llvm.lifetime.start.p0(i64 8, ptr %5) #11
  %19 = load i64, ptr %3, align 8, !tbaa !46
  %20 = load i64, ptr %4, align 8, !tbaa !46
  %21 = call noalias ptr @calloc(i64 noundef %19, i64 noundef %20) #13
  store ptr %21, ptr %5, align 8, !tbaa !3
  %22 = load i64, ptr %3, align 8, !tbaa !46
  %23 = icmp ugt i64 %22, 0
  br i1 %23, label %24, label %36

24:                                               ; preds = %18
  %25 = load i64, ptr %4, align 8, !tbaa !46
  %26 = icmp ugt i64 %25, 0
  br i1 %26, label %27, label %36

27:                                               ; preds = %24
  %28 = load ptr, ptr %5, align 8, !tbaa !3
  %29 = icmp eq ptr %28, null
  br i1 %29, label %30, label %36

30:                                               ; preds = %27
  %31 = load ptr, ptr @stderr, align 8, !tbaa !59
  %32 = load i64, ptr %3, align 8, !tbaa !46
  %33 = load i64, ptr %4, align 8, !tbaa !46
  %34 = mul i64 %32, %33
  %35 = call i32 (ptr, ptr, ...) @fprintf(ptr noundef %31, ptr noundef @.str.6, i64 noundef %34) #11
  call void @graphviz_exit(i32 noundef 1) #12
  unreachable

36:                                               ; preds = %27, %24, %18
  %37 = load ptr, ptr %5, align 8, !tbaa !3
  call void @llvm.lifetime.end.p0(i64 8, ptr %5) #11
  ret ptr %37
}

; Function Attrs: nounwind uwtable
define void @makeSelfArcs(ptr noundef %0, i32 noundef %1) #0 {
  %3 = alloca ptr, align 8
  %4 = alloca i32, align 4
  %5 = alloca i64, align 8
  %6 = alloca [1 x ptr], align 8
  %7 = alloca ptr, align 8
  %8 = alloca i64, align 8
  %9 = alloca i64, align 8
  store ptr %0, ptr %3, align 8, !tbaa !44
  store i32 %1, ptr %4, align 4, !tbaa !45
  call void @llvm.lifetime.start.p0(i64 8, ptr %5) #11
  %10 = load ptr, ptr %3, align 8, !tbaa !44
  %11 = getelementptr inbounds nuw %struct.Agobj_s, ptr %10, i32 0, i32 1
  %12 = load ptr, ptr %11, align 8, !tbaa !21
  %13 = getelementptr inbounds nuw %struct.Agedgeinfo_t, ptr %12, i32 0, i32 24
  %14 = load i16, ptr %13, align 8, !tbaa !27
  %15 = sext i16 %14 to i64
  store i64 %15, ptr %5, align 8, !tbaa !46
  %16 = load i64, ptr %5, align 8, !tbaa !46
  %17 = icmp eq i64 %16, 1
  br i1 %17, label %21, label %18

18:                                               ; preds = %2
  %19 = load i8, ptr @Concentrate, align 1, !tbaa !47, !range !48, !noundef !49
  %20 = trunc i8 %19 to i1
  br i1 %20, label %21, label %58

21:                                               ; preds = %18, %2
  call void @llvm.lifetime.start.p0(i64 8, ptr %6) #11
  %22 = load ptr, ptr %3, align 8, !tbaa !44
  %23 = getelementptr inbounds [1 x ptr], ptr %6, i64 0, i64 0
  store ptr %22, ptr %23, align 8, !tbaa !44
  %24 = getelementptr inbounds [1 x ptr], ptr %6, i64 0, i64 0
  %25 = load i32, ptr %4, align 4, !tbaa !45
  %26 = sitofp i32 %25 to double
  %27 = load i32, ptr %4, align 4, !tbaa !45
  %28 = sitofp i32 %27 to double
  call void @makeSelfEdge(ptr noundef %24, i64 noundef 0, i64 noundef 1, double noundef %26, double noundef %28, ptr noundef @sinfo)
  %29 = load ptr, ptr %3, align 8, !tbaa !44
  %30 = getelementptr inbounds nuw %struct.Agobj_s, ptr %29, i32 0, i32 1
  %31 = load ptr, ptr %30, align 8, !tbaa !21
  %32 = getelementptr inbounds nuw %struct.Agedgeinfo_t, ptr %31, i32 0, i32 4
  %33 = load ptr, ptr %32, align 8, !tbaa !50
  %34 = icmp ne ptr %33, null
  br i1 %34, label %35, label %56

35:                                               ; preds = %21
  %36 = load ptr, ptr %3, align 8, !tbaa !44
  %37 = getelementptr inbounds nuw %struct.Agobj_s, ptr %36, i32 0, i32 0
  %38 = load i32, ptr %37, align 8
  %39 = and i32 %38, 3
  %40 = icmp eq i32 %39, 3
  br i1 %40, label %41, label %43

41:                                               ; preds = %35
  %42 = load ptr, ptr %3, align 8, !tbaa !44
  br label %46

43:                                               ; preds = %35
  %44 = load ptr, ptr %3, align 8, !tbaa !44
  %45 = getelementptr inbounds %struct.Agedge_s, ptr %44, i64 1
  br label %46

46:                                               ; preds = %43, %41
  %47 = phi ptr [ %42, %41 ], [ %45, %43 ]
  %48 = getelementptr inbounds nuw %struct.Agedge_s, ptr %47, i32 0, i32 3
  %49 = load ptr, ptr %48, align 8, !tbaa !51
  %50 = call ptr @agraphof(ptr noundef %49)
  %51 = load ptr, ptr %3, align 8, !tbaa !44
  %52 = getelementptr inbounds nuw %struct.Agobj_s, ptr %51, i32 0, i32 1
  %53 = load ptr, ptr %52, align 8, !tbaa !21
  %54 = getelementptr inbounds nuw %struct.Agedgeinfo_t, ptr %53, i32 0, i32 4
  %55 = load ptr, ptr %54, align 8, !tbaa !50
  call void @updateBB(ptr noundef %50, ptr noundef %55)
  br label %56

56:                                               ; preds = %46, %21
  %57 = load ptr, ptr %3, align 8, !tbaa !44
  call void @makePortLabels(ptr noundef %57)
  call void @llvm.lifetime.end.p0(i64 8, ptr %6) #11
  br label %134

58:                                               ; preds = %18
  %59 = load i64, ptr %5, align 8, !tbaa !46
  %60 = icmp ugt i64 %59, 1
  br i1 %60, label %61, label %133

61:                                               ; preds = %58
  call void @llvm.lifetime.start.p0(i64 8, ptr %7) #11
  %62 = load i64, ptr %5, align 8, !tbaa !46
  %63 = call ptr @gv_calloc(i64 noundef %62, i64 noundef 8)
  store ptr %63, ptr %7, align 8, !tbaa !53
  call void @llvm.lifetime.start.p0(i64 8, ptr %8) #11
  store i64 0, ptr %8, align 8, !tbaa !46
  br label %64

64:                                               ; preds = %79, %61
  %65 = load i64, ptr %8, align 8, !tbaa !46
  %66 = load i64, ptr %5, align 8, !tbaa !46
  %67 = icmp ult i64 %65, %66
  br i1 %67, label %69, label %68

68:                                               ; preds = %64
  call void @llvm.lifetime.end.p0(i64 8, ptr %8) #11
  br label %82

69:                                               ; preds = %64
  %70 = load ptr, ptr %3, align 8, !tbaa !44
  %71 = load ptr, ptr %7, align 8, !tbaa !53
  %72 = load i64, ptr %8, align 8, !tbaa !46
  %73 = getelementptr inbounds nuw ptr, ptr %71, i64 %72
  store ptr %70, ptr %73, align 8, !tbaa !44
  %74 = load ptr, ptr %3, align 8, !tbaa !44
  %75 = getelementptr inbounds nuw %struct.Agobj_s, ptr %74, i32 0, i32 1
  %76 = load ptr, ptr %75, align 8, !tbaa !21
  %77 = getelementptr inbounds nuw %struct.Agedgeinfo_t, ptr %76, i32 0, i32 26
  %78 = load ptr, ptr %77, align 8, !tbaa !55
  store ptr %78, ptr %3, align 8, !tbaa !44
  br label %79

79:                                               ; preds = %69
  %80 = load i64, ptr %8, align 8, !tbaa !46
  %81 = add i64 %80, 1
  store i64 %81, ptr %8, align 8, !tbaa !46
  br label %64, !llvm.loop !56

82:                                               ; preds = %68
  %83 = load ptr, ptr %7, align 8, !tbaa !53
  %84 = load i64, ptr %5, align 8, !tbaa !46
  %85 = load i32, ptr %4, align 4, !tbaa !45
  %86 = sitofp i32 %85 to double
  %87 = load i32, ptr %4, align 4, !tbaa !45
  %88 = sitofp i32 %87 to double
  call void @makeSelfEdge(ptr noundef %83, i64 noundef 0, i64 noundef %84, double noundef %86, double noundef %88, ptr noundef @sinfo)
  call void @llvm.lifetime.start.p0(i64 8, ptr %9) #11
  store i64 0, ptr %9, align 8, !tbaa !46
  br label %89

89:                                               ; preds = %128, %82
  %90 = load i64, ptr %9, align 8, !tbaa !46
  %91 = load i64, ptr %5, align 8, !tbaa !46
  %92 = icmp ult i64 %90, %91
  br i1 %92, label %94, label %93

93:                                               ; preds = %89
  call void @llvm.lifetime.end.p0(i64 8, ptr %9) #11
  br label %131

94:                                               ; preds = %89
  %95 = load ptr, ptr %7, align 8, !tbaa !53
  %96 = load i64, ptr %9, align 8, !tbaa !46
  %97 = getelementptr inbounds nuw ptr, ptr %95, i64 %96
  %98 = load ptr, ptr %97, align 8, !tbaa !44
  store ptr %98, ptr %3, align 8, !tbaa !44
  %99 = load ptr, ptr %3, align 8, !tbaa !44
  %100 = getelementptr inbounds nuw %struct.Agobj_s, ptr %99, i32 0, i32 1
  %101 = load ptr, ptr %100, align 8, !tbaa !21
  %102 = getelementptr inbounds nuw %struct.Agedgeinfo_t, ptr %101, i32 0, i32 4
  %103 = load ptr, ptr %102, align 8, !tbaa !50
  %104 = icmp ne ptr %103, null
  br i1 %104, label %105, label %126

105:                                              ; preds = %94
  %106 = load ptr, ptr %3, align 8, !tbaa !44
  %107 = getelementptr inbounds nuw %struct.Agobj_s, ptr %106, i32 0, i32 0
  %108 = load i32, ptr %107, align 8
  %109 = and i32 %108, 3
  %110 = icmp eq i32 %109, 3
  br i1 %110, label %111, label %113

111:                                              ; preds = %105
  %112 = load ptr, ptr %3, align 8, !tbaa !44
  br label %116

113:                                              ; preds = %105
  %114 = load ptr, ptr %3, align 8, !tbaa !44
  %115 = getelementptr inbounds %struct.Agedge_s, ptr %114, i64 1
  br label %116

116:                                              ; preds = %113, %111
  %117 = phi ptr [ %112, %111 ], [ %115, %113 ]
  %118 = getelementptr inbounds nuw %struct.Agedge_s, ptr %117, i32 0, i32 3
  %119 = load ptr, ptr %118, align 8, !tbaa !51
  %120 = call ptr @agraphof(ptr noundef %119)
  %121 = load ptr, ptr %3, align 8, !tbaa !44
  %122 = getelementptr inbounds nuw %struct.Agobj_s, ptr %121, i32 0, i32 1
  %123 = load ptr, ptr %122, align 8, !tbaa !21
  %124 = getelementptr inbounds nuw %struct.Agedgeinfo_t, ptr %123, i32 0, i32 4
  %125 = load ptr, ptr %124, align 8, !tbaa !50
  call void @updateBB(ptr noundef %120, ptr noundef %125)
  br label %126

126:                                              ; preds = %116, %94
  %127 = load ptr, ptr %3, align 8, !tbaa !44
  call void @makePortLabels(ptr noundef %127)
  br label %128

128:                                              ; preds = %126
  %129 = load i64, ptr %9, align 8, !tbaa !46
  %130 = add i64 %129, 1
  store i64 %130, ptr %9, align 8, !tbaa !46
  br label %89, !llvm.loop !58

131:                                              ; preds = %93
  %132 = load ptr, ptr %7, align 8, !tbaa !53
  call void @free(ptr noundef %132) #11
  call void @llvm.lifetime.end.p0(i64 8, ptr %7) #11
  br label %133

133:                                              ; preds = %131, %58
  br label %134

134:                                              ; preds = %133, %56
  call void @llvm.lifetime.end.p0(i64 8, ptr %5) #11
  ret void
}