; Function Attrs: nounwind uwtable
define void @makeSelfArcs(ptr noundef %0, i32 noundef %1) local_unnamed_addr #3 {
  %3 = alloca [1 x ptr], align 8
  %4 = getelementptr inbounds nuw i8, ptr %0, i64 16
  %5 = load ptr, ptr %4, align 8, !tbaa !20
  %6 = getelementptr inbounds nuw i8, ptr %5, i64 224
  %7 = load i16, ptr %6, align 8, !tbaa !26
  %8 = sext i16 %7 to i64
  %9 = icmp eq i16 %7, 1
  br i1 %9, label %13, label %10

10:                                               ; preds = %2
  %11 = load i8, ptr @Concentrate, align 1, !tbaa !43, !range !44, !noundef !45
  %12 = trunc nuw i8 %11 to i1
  br i1 %12, label %13, label %30

13:                                               ; preds = %10, %2
  call void @llvm.lifetime.start.p0(i64 8, ptr nonnull %3) #20
  store ptr %0, ptr %3, align 8, !tbaa !46
  %14 = sitofp i32 %1 to double
  call void @makeSelfEdge(ptr noundef nonnull %3, i64 noundef 0, i64 noundef 1, double noundef %14, double noundef %14, ptr noundef nonnull @sinfo) #20
  %15 = load ptr, ptr %4, align 8, !tbaa !20
  %16 = getelementptr inbounds nuw i8, ptr %15, i64 120
  %17 = load ptr, ptr %16, align 8, !tbaa !47
  %.not39 = icmp eq ptr %17, null
  br i1 %.not39, label %29, label %18

18:                                               ; preds = %13
  %19 = load i32, ptr %0, align 8
  %20 = and i32 %19, 3
  %21 = icmp eq i32 %20, 3
  %.idx40 = select i1 %21, i64 0, i64 64
  %22 = getelementptr inbounds nuw i8, ptr %0, i64 %.idx40
  %23 = getelementptr inbounds nuw i8, ptr %22, i64 56
  %24 = load ptr, ptr %23, align 8, !tbaa !48
  %25 = call ptr @agraphof(ptr noundef %24) #20
  %26 = load ptr, ptr %4, align 8, !tbaa !20
  %27 = getelementptr inbounds nuw i8, ptr %26, i64 120
  %28 = load ptr, ptr %27, align 8, !tbaa !47
  call void @updateBB(ptr noundef %25, ptr noundef %28) #20
  br label %29

29:                                               ; preds = %18, %13
  call void @makePortLabels(ptr noundef nonnull %0) #20
  call void @llvm.lifetime.end.p0(i64 8, ptr nonnull %3) #20
  br label %71

30:                                               ; preds = %10
  %.not = icmp eq i16 %7, 0
  br i1 %.not, label %71, label %31

31:                                               ; preds = %30
  %mul.ov.i = icmp slt i16 %7, 0
  br i1 %mul.ov.i, label %32, label %35

32:                                               ; preds = %31
  %33 = load ptr, ptr @stderr, align 8, !tbaa !3
  %34 = tail call i32 (ptr, ptr, ...) @fprintf(ptr noundef %33, ptr noundef nonnull @.str.5, i64 noundef %8, i64 noundef 8) #18
  tail call fastcc void @graphviz_exit() #19
  unreachable

35:                                               ; preds = %31
  %36 = tail call noalias ptr @calloc(i64 noundef %8, i64 noundef 8) #17
  %37 = icmp eq ptr %36, null
  br i1 %37, label %38, label %gv_calloc.exit.preheader

gv_calloc.exit.preheader:                         ; preds = %35
  %umax = tail call i64 @llvm.umax.i64(i64 %8, i64 1)
  br label %gv_calloc.exit

38:                                               ; preds = %35
  %39 = load ptr, ptr @stderr, align 8, !tbaa !3
  %40 = shl nuw nsw i64 %8, 3
  %41 = tail call i32 (ptr, ptr, ...) @fprintf(ptr noundef %39, ptr noundef nonnull @.str.6, i64 noundef %40) #18
  tail call fastcc void @graphviz_exit() #19
  unreachable

42:                                               ; preds = %gv_calloc.exit
  %43 = sitofp i32 %1 to double
  tail call void @makeSelfEdge(ptr noundef nonnull %36, i64 noundef 0, i64 noundef %8, double noundef %43, double noundef %43, ptr noundef nonnull @sinfo) #20
  br label %51

gv_calloc.exit:                                   ; preds = %gv_calloc.exit.preheader, %gv_calloc.exit
  %.03542 = phi i64 [ %49, %gv_calloc.exit ], [ 0, %gv_calloc.exit.preheader ]
  %.03641 = phi ptr [ %48, %gv_calloc.exit ], [ %0, %gv_calloc.exit.preheader ]
  %44 = getelementptr inbounds nuw ptr, ptr %36, i64 %.03542
  store ptr %.03641, ptr %44, align 8, !tbaa !46
  %45 = getelementptr inbounds nuw i8, ptr %.03641, i64 16
  %46 = load ptr, ptr %45, align 8, !tbaa !20
  %47 = getelementptr inbounds nuw i8, ptr %46, i64 232
  %48 = load ptr, ptr %47, align 8, !tbaa !50
  %49 = add nuw i64 %.03542, 1
  %exitcond.not = icmp eq i64 %49, %umax
  br i1 %exitcond.not, label %42, label %gv_calloc.exit, !llvm.loop !51

50:                                               ; preds = %69
  tail call void @free(ptr noundef nonnull %36) #20
  br label %71

51:                                               ; preds = %42, %69
  %.043 = phi i64 [ 0, %42 ], [ %70, %69 ]
  %52 = getelementptr inbounds nuw ptr, ptr %36, i64 %.043
  %53 = load ptr, ptr %52, align 8, !tbaa !46
  %54 = getelementptr inbounds nuw i8, ptr %53, i64 16
  %55 = load ptr, ptr %54, align 8, !tbaa !20
  %56 = getelementptr inbounds nuw i8, ptr %55, i64 120
  %57 = load ptr, ptr %56, align 8, !tbaa !47
  %.not38 = icmp eq ptr %57, null
  br i1 %.not38, label %69, label %58

58:                                               ; preds = %51
  %59 = load i32, ptr %53, align 8
  %60 = and i32 %59, 3
  %61 = icmp eq i32 %60, 3
  %.idx = select i1 %61, i64 0, i64 64
  %62 = getelementptr inbounds nuw i8, ptr %53, i64 %.idx
  %63 = getelementptr inbounds nuw i8, ptr %62, i64 56
  %64 = load ptr, ptr %63, align 8, !tbaa !48
  %65 = tail call ptr @agraphof(ptr noundef %64) #20
  %66 = load ptr, ptr %54, align 8, !tbaa !20
  %67 = getelementptr inbounds nuw i8, ptr %66, i64 120
  %68 = load ptr, ptr %67, align 8, !tbaa !47
  tail call void @updateBB(ptr noundef %65, ptr noundef %68) #20
  br label %69

69:                                               ; preds = %58, %51
  tail call void @makePortLabels(ptr noundef nonnull %53) #20
  %70 = add nuw i64 %.043, 1
  %exitcond44.not = icmp eq i64 %70, %umax
  br i1 %exitcond44.not, label %50, label %51, !llvm.loop !53

71:                                               ; preds = %30, %50, %29
  ret void
}